target datalayout = "e-m:e-p270:32:32-p271:32:32-p272:64:64-i64:64-i128:128-f80:128-n8:16:32:64-S128"
target triple = "x86_64-unknown-linux-gnu"

%struct.task_struct = type { %struct.thread_info, i32, i32, ptr, %struct.refcount_struct, i32, i32, i32, %struct.__call_single_node, i32, i64, ptr, i32, i32, i32, i32, i32, i32, i32, %struct.sched_entity, %struct.sched_rt_entity, %struct.sched_dl_entity, ptr, ptr, ptr, %struct.sched_statistics, i32, i32, i32, ptr, ptr, %struct.cpumask, ptr, i16, i16, i32, %union.rcu_special, %struct.list_head, ptr, i64, i8, i8, i32, %struct.list_head, %struct.sched_info, %struct.list_head, %struct.plist_node, %struct.rb_node, ptr, ptr, ptr, i32, i32, i32, i32, i64, i32, i8, [3 x i8], i16, i64, %struct.restart_block, i32, i32, ptr, ptr, %struct.list_head, %struct.list_head, ptr, %struct.list_head, %struct.list_head, ptr, [4 x %struct.hlist_node], %struct.list_head, ptr, ptr, ptr, ptr, i64, i64, i64, %struct.prev_cputime, i64, i64, i64, i64, i64, i64, %struct.posix_cputimers, %struct.posix_cputimers_work, ptr, ptr, ptr, ptr, [16 x i8], ptr, %struct.sysv_sem, %struct.sysv_shm, ptr, ptr, ptr, ptr, ptr, ptr, %struct.sigset_t, %struct.sigset_t, %struct.sigset_t, %struct.sigpending, i64, i64, i32, ptr, ptr, %struct.kuid_t, i32, %struct.seccomp, %struct.syscall_user_dispatch, i64, i64, %struct.spinlock, %struct.raw_spinlock, %struct.wake_q_node, %struct.rb_root_cached, ptr, ptr, ptr, ptr, ptr, ptr, ptr, ptr, i64, ptr, %struct.task_io_accounting, i64, i64, i64, %struct.nodemask_t, %struct.seqcount_spinlock, i32, i32, ptr, %struct.list_head, ptr, ptr, %struct.list_head, ptr, %struct.mutex, i32, ptr, %struct.mutex, %struct.list_head, ptr, i16, i16, ptr, i32, i32, i64, i32, i32, i32, i32, %struct.callback_head, %struct.tlbflush_unmap_batch, ptr, %struct.page_frag, ptr, i32, i32, i64, i64, i64, i64, ptr, ptr, %struct.kmap_ctrl, %struct.callback_head, %struct.refcount_struct, i32, ptr, %struct.timer_list, ptr, %struct.refcount_struct, ptr, ptr, i64, i64, i64, %struct.callback_head, i32, %struct.llist_head, %struct.llist_head, %struct.callback_head, [24 x i8], %struct.thread_struct }
%struct.thread_info = type { i64, i64, i32, i32 }
%struct.__call_single_node = type { %struct.llist_node, %union.anon, i16, i16 }
%struct.llist_node = type { ptr }
%union.anon = type { i32 }
%struct.sched_entity = type { %struct.load_weight, %struct.rb_node, i64, i64, %struct.list_head, i32, i64, i64, i64, i64, i64, i64, i64, i32, ptr, ptr, ptr, i64, [16 x i8], %struct.sched_avg }
%struct.load_weight = type { i64, i32 }
%struct.sched_avg = type { i64, i64, i64, i32, i32, i64, i64, i64, i32 }
%struct.sched_rt_entity = type { %struct.list_head, i64, i64, i32, i16, i16, ptr }
%struct.sched_dl_entity = type { %struct.rb_node, i64, i64, i64, i64, i64, i64, i64, i32, i8, %struct.hrtimer, %struct.hrtimer, ptr, ptr, ptr, ptr }
%struct.hrtimer = type { %struct.timerqueue_node, i64, ptr, ptr, i8, i8, i8, i8 }
%struct.timerqueue_node = type { %struct.rb_node, i64 }
%struct.sched_statistics = type { i64, i64, i64, i64, i64, i64, i64, i64, i64, i64, i64, i64, i64, i64, i64, i64, i64, i64, i64, i64, i64, i64, i64, i64, i64, i64, i64, i64, [32 x i8] }
%struct.cpumask = type { [1 x i64] }
%union.rcu_special = type { i32 }
%struct.sched_info = type { i64, i64, i64, i64 }
%struct.plist_node = type { i32, %struct.list_head, %struct.list_head }
%struct.rb_node = type { i64, ptr, ptr }
%struct.restart_block = type { i64, ptr, %union.anon.0 }
%union.anon.0 = type { %struct.anon.1 }
%struct.anon.1 = type { ptr, i32, i32, i32, i64, ptr }
%struct.hlist_node = type { ptr, ptr }
%struct.prev_cputime = type { i64, i64, %struct.raw_spinlock }
%struct.posix_cputimers = type { [3 x %struct.posix_cputimer_base], i32, i32 }
%struct.posix_cputimer_base = type { i64, %struct.timerqueue_head }
%struct.timerqueue_head = type { %struct.rb_root_cached }
%struct.posix_cputimers_work = type { %struct.callback_head, %struct.mutex, i32 }
%struct.sysv_sem = type { ptr }
%struct.sysv_shm = type { %struct.list_head }
%struct.sigset_t = type { [1 x i64] }
%struct.sigpending = type { %struct.list_head, %struct.sigset_t }
%struct.kuid_t = type { i32 }
%struct.seccomp = type { i32, %struct.atomic_t, ptr }
%struct.atomic_t = type { i32 }
%struct.syscall_user_dispatch = type { ptr, i64, i64, i8 }
%struct.spinlock = type { %union.anon.8 }
%union.anon.8 = type { %struct.raw_spinlock }
%struct.raw_spinlock = type { %struct.qspinlock }
%struct.qspinlock = type { %union.anon.5 }
%union.anon.5 = type { %struct.atomic_t }
%struct.wake_q_node = type { ptr }
%struct.rb_root_cached = type { %struct.rb_root, ptr }
%struct.rb_root = type { ptr }
%struct.task_io_accounting = type { i64, i64, i64, i64, i64, i64, i64 }
%struct.nodemask_t = type { [1 x i64] }
%struct.seqcount_spinlock = type { %struct.seqcount }
%struct.seqcount = type { i32 }
%struct.mutex = type { %struct.atomic64_t, %struct.raw_spinlock, %struct.optimistic_spin_queue, %struct.list_head }
%struct.atomic64_t = type { i64 }
%struct.optimistic_spin_queue = type { %struct.atomic_t }
%struct.list_head = type { ptr, ptr }
%struct.tlbflush_unmap_batch = type { %struct.arch_tlbflush_unmap_batch, i8, i8 }
%struct.arch_tlbflush_unmap_batch = type { %struct.cpumask }
%struct.page_frag = type { ptr, i32, i32 }
%struct.kmap_ctrl = type {}
%struct.timer_list = type { %struct.hlist_node, i64, ptr, i32 }
%struct.refcount_struct = type { %struct.atomic_t }
%struct.llist_head = type { ptr }
%struct.callback_head = type { ptr, ptr }
%struct.thread_struct = type { [3 x %struct.desc_struct], i64, i16, i16, i16, i16, i64, i64, [4 x ptr], i64, i64, i64, i64, i64, ptr, i64, i8, i32, [40 x i8], %struct.fpu }
%struct.desc_struct = type { i16, i16, i32 }
%struct.fpu = type { i32, i64, ptr, ptr, %struct.fpu_state_perm, %struct.fpu_state_perm, %struct.fpstate }
%struct.fpu_state_perm = type { i64, i32, i32 }
%struct.fpstate = type { i32, i32, i64, i64, i64, i8, [31 x i8], %union.fpregs_state }
%union.fpregs_state = type { %struct.xregs_state, [3520 x i8] }
%struct.xregs_state = type { %struct.fxregs_state, %struct.xstate_header, [0 x i8] }
%struct.fxregs_state = type { i16, i16, i16, i16, %union.anon.9, i32, i32, [32 x i32], [64 x i32], [12 x i32], %union.anon.12 }
%union.anon.9 = type { %struct.anon.10 }
%struct.anon.10 = type { i64, i64 }
%union.anon.12 = type { [12 x i32] }
%struct.xstate_header = type { i64, i64, [6 x i64] }
%struct.pcpu_hot = type { %union.anon.16 }
%union.anon.16 = type { %struct.anon.17, [16 x i8] }
%struct.anon.17 = type { ptr, i32, i32, i64, i64, ptr, i16, i8 }

@init_task = external dso_local global %struct.task_struct, align 64
@pcpu_hot = external dso_local global %struct.pcpu_hot, section ".data..percpu..shared_aligned", align 64

; Function Attrs: fn_ret_thunk_extern nounwind null_pointer_is_valid
define dso_local noundef zeroext i1 @current_is_single_threaded() local_unnamed_addr #0 align 16 {
  %1 = tail call i64 asm "movq %gs:${1:P}, $0", "=r,p,~{dirflag},~{fpsr},~{flags}"(ptr nonnull @pcpu_hot) #2, !srcloc !5
  %2 = inttoptr i64 %1 to ptr
  %3 = getelementptr inbounds i8, ptr %2, i64 1192
  %4 = load ptr, ptr %3, align 8
  %5 = getelementptr inbounds i8, ptr %2, i64 1880
  %6 = load ptr, ptr %5, align 8
  %7 = getelementptr inbounds i8, ptr %6, i64 4
  %8 = load volatile i32, ptr %7, align 4
  %9 = icmp eq i32 %8, 1
  br i1 %9, label %10, label %57

10:                                               ; preds = %0
  %11 = getelementptr inbounds i8, ptr %4, i64 140
  %12 = load volatile i32, ptr %11, align 4
  %13 = icmp eq i32 %12, 1
  br i1 %13, label %57, label %14

14:                                               ; preds = %10
  tail call void @__rcu_read_lock() #3
  %15 = load volatile ptr, ptr getelementptr inbounds (%struct.task_struct, ptr @init_task, i64 0, i32 45, i32 0), align 8
  %16 = getelementptr i8, ptr %15, i64 -1112
  %17 = icmp eq ptr %16, @init_task
  br i1 %17, label %55, label %18

18:                                               ; preds = %14
  %19 = getelementptr inbounds i8, ptr %2, i64 1376
  br label %20

20:                                               ; preds = %50, %18
  %21 = phi i1 [ %17, %18 ], [ %54, %50 ]
  %22 = phi ptr [ %16, %18 ], [ %53, %50 ]
  %23 = phi ptr [ %15, %18 ], [ %52, %50 ]
  %24 = getelementptr i8, ptr %23, i64 -1068
  %25 = load i32, ptr %24, align 4
  %26 = and i32 %25, 2097152
  %27 = icmp eq i32 %26, 0
  br i1 %27, label %28, label %50, !prof !6

28:                                               ; preds = %20
  %29 = load ptr, ptr %19, align 32
  %30 = icmp eq ptr %22, %29
  br i1 %30, label %50, label %31, !prof !7

31:                                               ; preds = %28
  %32 = getelementptr i8, ptr %23, i64 768
  %33 = load ptr, ptr %32, align 8
  %34 = getelementptr inbounds i8, ptr %33, i64 16
  %35 = load volatile ptr, ptr %34, align 8
  %36 = getelementptr inbounds i8, ptr %33, i64 16
  %37 = icmp eq ptr %35, %36
  br i1 %37, label %50, label %38

38:                                               ; preds = %45, %31
  %39 = phi ptr [ %46, %45 ], [ %35, %31 ]
  %40 = getelementptr i8, ptr %39, i64 -296
  %41 = load ptr, ptr %40, align 8
  %42 = icmp eq ptr %41, %4
  br i1 %42, label %55, label %43, !prof !7

43:                                               ; preds = %38
  %44 = icmp eq ptr %41, null
  br i1 %44, label %45, label %50, !prof !7

45:                                               ; preds = %43
  tail call void asm sideeffect "", "~{memory},~{dirflag},~{fpsr},~{flags}"() #3, !srcloc !8
  %46 = load volatile ptr, ptr %39, align 8
  %47 = load ptr, ptr %32, align 8
  %48 = getelementptr inbounds i8, ptr %47, i64 16
  %49 = icmp eq ptr %46, %48
  br i1 %49, label %50, label %38, !llvm.loop !9

50:                                               ; preds = %45, %43, %31, %28, %20
  %51 = getelementptr inbounds i8, ptr %22, i64 1112
  %52 = load volatile ptr, ptr %51, align 8
  %53 = getelementptr i8, ptr %52, i64 -1112
  %54 = icmp eq ptr %53, @init_task
  br i1 %54, label %55, label %20, !llvm.loop !12

55:                                               ; preds = %50, %38, %14
  %56 = phi i1 [ %17, %14 ], [ %21, %38 ], [ %54, %50 ]
  tail call void @__rcu_read_unlock() #3
  br label %57

57:                                               ; preds = %55, %10, %0
  %58 = phi i1 [ %56, %55 ], [ false, %0 ], [ true, %10 ]
  ret i1 %58
}

; Function Attrs: null_pointer_is_valid
declare dso_local void @__rcu_read_lock() local_unnamed_addr #1

; Function Attrs: null_pointer_is_valid
declare dso_local void @__rcu_read_unlock() local_unnamed_addr #1


!llvm.module.flags = !{!0, !1, !2, !3, !4}

!0 = !{i32 1, !"wchar_size", i32 2}
!1 = !{i32 8, !"cf-protection-branch", i32 1}
!2 = !{i32 4, !"function_return_thunk_extern", i32 1}
!3 = !{i32 4, !"indirect_branch_cs_prefix", i32 1}
!4 = !{i32 4, !"SkipRaxSetup", i32 1}
!5 = !{i64 2148773462}
!6 = !{!"branch_weights", i32 2000, i32 1}
!7 = !{!"branch_weights", i32 1, i32 2000}
!8 = !{i64 2152630226}
!9 = distinct !{!9, !10, !11}
!10 = !{!"llvm.loop.mustprogress"}
!11 = !{!"llvm.loop.unroll.disable"}
!12 = distinct !{!12, !10, !11}
